; Function Attrs: nounwind uwtable
define noalias nonnull ptr @l_Lean_Elab_Tactic_Conv_evalSkip(ptr noundef readnone captures(none) %0, ptr noundef readnone captures(none) %1, ptr noundef readnone captures(none) %2, ptr noundef readnone captures(none) %3, ptr noundef readnone captures(none) %4, ptr noundef readnone captures(none) %5, ptr noundef readnone captures(none) %6, ptr noundef readnone captures(none) %7, ptr noundef readnone captures(none) %8) local_unnamed_addr #1 {
  tail call void @lean_inc_heartbeat() #4
  %10 = tail call noalias ptr @mi_malloc_small(i64 noundef 24) #4
  %11 = icmp eq ptr %10, null
  br i1 %11, label %12, label %lean_alloc_closure.exit

12:                                               ; preds = %9
  tail call void @lean_internal_panic_out_of_memory() #5
  unreachable

lean_alloc_closure.exit:                          ; preds = %9
  %13 = getelementptr inbounds nuw i8, ptr %10, i64 4
  store i32 1, ptr %10, align 4, !tbaa !6
  store i32 -184549352, ptr %13, align 4
  %14 = getelementptr inbounds nuw i8, ptr %10, i64 8
  store ptr @l_Lean_Elab_Tactic_Conv_evalSkip___rarg, ptr %14, align 8, !tbaa !11
  %15 = getelementptr inbounds nuw i8, ptr %10, i64 16
  store i16 1, ptr %15, align 8, !tbaa !15
  %16 = getelementptr inbounds nuw i8, ptr %10, i64 18
  store i16 0, ptr %16, align 2, !tbaa !15
  ret ptr %10
}